; ModuleID = '38/399.c'
source_filename = "38/399.c"
target datalayout = "e-m:e-p270:32:32-p271:32:32-p272:64:64-i64:64-f80:128-n8:16:32:64-S128"
target triple = "x86_64-pc-linux-gnu"

@.str = private unnamed_addr constant [3 x i8] c"%d\00", align 1
@.str.1 = private unnamed_addr constant [4 x i8] c"%lf\00", align 1
@.str.2 = private unnamed_addr constant [3 x i8] c"%f\00", align 1
@.str.3 = private unnamed_addr constant [7 x i8] c"%.5lf\0A\00", align 1

; Function Attrs: noinline nounwind uwtable
define dso_local i32 @main() #0 {
  %1 = alloca i32, align 4
  %2 = alloca i32, align 4
  %3 = alloca i32, align 4
  %4 = alloca i32, align 4
  %5 = alloca [100 x [100 x float]], align 16
  %6 = alloca [100 x double], align 16
  %7 = alloca [100 x double], align 16
  %8 = alloca double, align 8
  %9 = alloca double, align 8
  store i32 0, i32* %1, align 4
  %10 = call i32 (i8*, ...) @__isoc99_scanf(i8* getelementptr inbounds ([3 x i8], [3 x i8]* @.str, i64 0, i64 0), i32* %2)
  store i32 0, i32* %3, align 4
  br label %11

11:                                               ; preds = %19, %0
  %12 = load i32, i32* %3, align 4
  %13 = load i32, i32* %2, align 4
  %14 = icmp slt i32 %12, %13
  br i1 %14, label %15, label %22

15:                                               ; preds = %11
  %16 = load i32, i32* %3, align 4
  %17 = sext i32 %16 to i64
  %18 = getelementptr inbounds [100 x double], [100 x double]* %7, i64 0, i64 %17
  store double 0.000000e+00, double* %18, align 8
  br label %19

19:                                               ; preds = %15
  %20 = load i32, i32* %3, align 4
  %21 = add nsw i32 %20, 1
  store i32 %21, i32* %3, align 4
  br label %11

22:                                               ; preds = %11
  store i32 0, i32* %3, align 4
  br label %23

23:                                               ; preds = %65, %22
  %24 = load i32, i32* %3, align 4
  %25 = load i32, i32* %2, align 4
  %26 = icmp slt i32 %24, %25
  br i1 %26, label %27, label %68

27:                                               ; preds = %23
  %28 = load i32, i32* %3, align 4
  %29 = sext i32 %28 to i64
  %30 = getelementptr inbounds [100 x double], [100 x double]* %6, i64 0, i64 %29
  %31 = call i32 (i8*, ...) @__isoc99_scanf(i8* getelementptr inbounds ([4 x i8], [4 x i8]* @.str.1, i64 0, i64 0), double* %30)
  store i32 0, i32* %4, align 4
  br label %32

32:                                               ; preds = %61, %27
  %33 = load i32, i32* %4, align 4
  %34 = sitofp i32 %33 to double
  %35 = load i32, i32* %3, align 4
  %36 = sext i32 %35 to i64
  %37 = getelementptr inbounds [100 x double], [100 x double]* %6, i64 0, i64 %36
  %38 = load double, double* %37, align 8
  %39 = fcmp olt double %34, %38
  br i1 %39, label %40, label %64

40:                                               ; preds = %32
  %41 = load i32, i32* %3, align 4
  %42 = sext i32 %41 to i64
  %43 = getelementptr inbounds [100 x [100 x float]], [100 x [100 x float]]* %5, i64 0, i64 %42
  %44 = load i32, i32* %4, align 4
  %45 = sext i32 %44 to i64
  %46 = getelementptr inbounds [100 x float], [100 x float]* %43, i64 0, i64 %45
  %47 = call i32 (i8*, ...) @__isoc99_scanf(i8* getelementptr inbounds ([3 x i8], [3 x i8]* @.str.2, i64 0, i64 0), float* %46)
  %48 = load i32, i32* %3, align 4
  %49 = sext i32 %48 to i64
  %50 = getelementptr inbounds [100 x [100 x float]], [100 x [100 x float]]* %5, i64 0, i64 %49
  %51 = load i32, i32* %4, align 4
  %52 = sext i32 %51 to i64
  %53 = getelementptr inbounds [100 x float], [100 x float]* %50, i64 0, i64 %52
  %54 = load float, float* %53, align 4
  %55 = fpext float %54 to double
  %56 = load i32, i32* %3, align 4
  %57 = sext i32 %56 to i64
  %58 = getelementptr inbounds [100 x double], [100 x double]* %7, i64 0, i64 %57
  %59 = load double, double* %58, align 8
  %60 = fadd double %59, %55
  store double %60, double* %58, align 8
  br label %61

61:                                               ; preds = %40
  %62 = load i32, i32* %4, align 4
  %63 = add nsw i32 %62, 1
  store i32 %63, i32* %4, align 4
  br label %32

64:                                               ; preds = %32
  br label %65

65:                                               ; preds = %64
  %66 = load i32, i32* %3, align 4
  %67 = add nsw i32 %66, 1
  store i32 %67, i32* %3, align 4
  br label %23

68:                                               ; preds = %23
  store i32 0, i32* %3, align 4
  br label %69

69:                                               ; preds = %117, %68
  %70 = load i32, i32* %3, align 4
  %71 = load i32, i32* %2, align 4
  %72 = icmp slt i32 %70, %71
  br i1 %72, label %73, label %120

73:                                               ; preds = %69
  store double 0.000000e+00, double* %8, align 8
  store double 0.000000e+00, double* %9, align 8
  store i32 0, i32* %4, align 4
  br label %74

74:                                               ; preds = %105, %73
  %75 = load i32, i32* %4, align 4
  %76 = sitofp i32 %75 to double
  %77 = load i32, i32* %3, align 4
  %78 = sext i32 %77 to i64
  %79 = getelementptr inbounds [100 x double], [100 x double]* %6, i64 0, i64 %78
  %80 = load double, double* %79, align 8
  %81 = fcmp olt double %76, %80
  br i1 %81, label %82, label %108

82:                                               ; preds = %74
  %83 = load i32, i32* %3, align 4
  %84 = sext i32 %83 to i64
  %85 = getelementptr inbounds [100 x [100 x float]], [100 x [100 x float]]* %5, i64 0, i64 %84
  %86 = load i32, i32* %4, align 4
  %87 = sext i32 %86 to i64
  %88 = getelementptr inbounds [100 x float], [100 x float]* %85, i64 0, i64 %87
  %89 = load float, float* %88, align 4
  %90 = fpext float %89 to double
  %91 = load i32, i32* %3, align 4
  %92 = sext i32 %91 to i64
  %93 = getelementptr inbounds [100 x double], [100 x double]* %7, i64 0, i64 %92
  %94 = load double, double* %93, align 8
  %95 = load i32, i32* %3, align 4
  %96 = sext i32 %95 to i64
  %97 = getelementptr inbounds [100 x double], [100 x double]* %6, i64 0, i64 %96
  %98 = load double, double* %97, align 8
  %99 = fdiv double %94, %98
  %100 = fsub double %90, %99
  store double %100, double* %9, align 8
  %101 = load double, double* %9, align 8
  %102 = call double @pow(double %101, double 2.000000e+00) #3
  %103 = load double, double* %8, align 8
  %104 = fadd double %103, %102
  store double %104, double* %8, align 8
  br label %105

105:                                              ; preds = %82
  %106 = load i32, i32* %4, align 4
  %107 = add nsw i32 %106, 1
  store i32 %107, i32* %4, align 4
  br label %74

108:                                              ; preds = %74
  %109 = load double, double* %8, align 8
  %110 = load i32, i32* %3, align 4
  %111 = sext i32 %110 to i64
  %112 = getelementptr inbounds [100 x double], [100 x double]* %6, i64 0, i64 %111
  %113 = load double, double* %112, align 8
  %114 = fdiv double %109, %113
  %115 = call double @pow(double %114, double 5.000000e-01) #3
  %116 = call i32 (i8*, ...) @printf(i8* getelementptr inbounds ([7 x i8], [7 x i8]* @.str.3, i64 0, i64 0), double %115)
  br label %117

117:                                              ; preds = %108
  %118 = load i32, i32* %3, align 4
  %119 = add nsw i32 %118, 1
  store i32 %119, i32* %3, align 4
  br label %69

120:                                              ; preds = %69
  ret i32 0
}

declare dso_local i32 @__isoc99_scanf(i8*, ...) #1

; Function Attrs: nounwind
declare dso_local double @pow(double, double) #2

declare dso_local i32 @printf(i8*, ...) #1


!llvm.module.flags = !{!0}
!llvm.ident = !{!1}

!0 = !{i32 1, !"wchar_size", i32 4}
!1 = !{!"clang version 10.0.0-4ubuntu1 "}
